target datalayout = "e-m:e-p270:32:32-p271:32:32-p272:64:64-i64:64-i128:128-f80:128-n8:16:32:64-S128"
target triple = "x86_64-pc-linux-gnu"

%class.ScanTree = type { [1024 x ptr], i32, i32, ptr, i32, i8, i32, i32, i8, [2048 x i32], [2048 x i32], %class.StringList, %class.StringList, ptr, ptr, i8, i8, i64, [2048 x i32], ptr }
%class.StringList = type { %class.Array, i64, i64, [16 x i64], i64 }
%class.Array = type { ptr, i64, i64, i64 }

@.str = private unnamed_addr constant [2 x i32] [i32 42, i32 0], align 4

; Function Attrs: mustprogress uwtable
define noundef zeroext i1 @_ZN8ScanTree11GetNextMaskEv(ptr noundef nonnull align 8 dereferenceable(33216) %0) #0 align 2 {
  %2 = alloca i1, align 1
  %3 = alloca ptr, align 8
  %4 = alloca ptr, align 8
  %5 = alloca ptr, align 8
  store ptr %0, ptr %3, align 8, !tbaa !3
  %6 = load ptr, ptr %3, align 8
  %7 = call noundef zeroext i1 @_ZN8ScanTree15GetFilteredMaskEv(ptr noundef nonnull align 8 dereferenceable(33216) %6)
  br i1 %7, label %9, label %8

8:                                                ; preds = %1
  store i1 false, ptr %2, align 1
  br label %109

9:                                                ; preds = %1
  %10 = getelementptr inbounds nuw %class.ScanTree, ptr %6, i32 0, i32 9
  %11 = getelementptr inbounds [2048 x i32], ptr %10, i64 0, i64 0
  %12 = load i32, ptr %11, align 4, !tbaa !33
  %13 = icmp eq i32 %12, 92
  br i1 %13, label %14, label %42

14:                                               ; preds = %9
  %15 = getelementptr inbounds nuw %class.ScanTree, ptr %6, i32 0, i32 9
  %16 = getelementptr inbounds [2048 x i32], ptr %15, i64 0, i64 1
  %17 = load i32, ptr %16, align 4, !tbaa !33
  %18 = icmp eq i32 %17, 92
  br i1 %18, label %19, label %42

19:                                               ; preds = %14
  call void @llvm.lifetime.start.p0(i64 8, ptr %4) #12
  %20 = getelementptr inbounds nuw %class.ScanTree, ptr %6, i32 0, i32 9
  %21 = getelementptr inbounds [2048 x i32], ptr %20, i64 0, i64 0
  %22 = getelementptr inbounds i32, ptr %21, i64 2
  %23 = call ptr @wcschr(ptr noundef %22, i32 noundef signext 92) #14
  store ptr %23, ptr %4, align 8, !tbaa !53
  %24 = load ptr, ptr %4, align 8, !tbaa !53
  %25 = icmp ne ptr %24, null
  br i1 %25, label %26, label %41

26:                                               ; preds = %19
  %27 = load ptr, ptr %4, align 8, !tbaa !53
  %28 = getelementptr inbounds i32, ptr %27, i64 1
  %29 = call ptr @wcschr(ptr noundef %28, i32 noundef signext 92) #14
  store ptr %29, ptr %4, align 8, !tbaa !53
  %30 = load ptr, ptr %4, align 8, !tbaa !53
  %31 = icmp ne ptr %30, null
  br i1 %31, label %32, label %37

32:                                               ; preds = %26
  %33 = load ptr, ptr %4, align 8, !tbaa !53
  %34 = getelementptr inbounds i32, ptr %33, i64 1
  %35 = load i32, ptr %34, align 4, !tbaa !33
  %36 = icmp eq i32 %35, 0
  br label %37

37:                                               ; preds = %32, %26
  %38 = phi i1 [ false, %26 ], [ %36, %32 ]
  %39 = getelementptr inbounds nuw %class.ScanTree, ptr %6, i32 0, i32 8
  %40 = zext i1 %38 to i8
  store i8 %40, ptr %39, align 8, !tbaa !30
  br label %41

41:                                               ; preds = %37, %19
  call void @llvm.lifetime.end.p0(i64 8, ptr %4) #12
  br label %60

42:                                               ; preds = %14, %9
  %43 = getelementptr inbounds nuw %class.ScanTree, ptr %6, i32 0, i32 9
  %44 = getelementptr inbounds [2048 x i32], ptr %43, i64 0, i64 0
  %45 = call noundef zeroext i1 @_Z13IsDriveLetterPKw(ptr noundef %44)
  br i1 %45, label %46, label %56

46:                                               ; preds = %42
  %47 = getelementptr inbounds nuw %class.ScanTree, ptr %6, i32 0, i32 9
  %48 = getelementptr inbounds [2048 x i32], ptr %47, i64 0, i64 2
  %49 = load i32, ptr %48, align 4, !tbaa !33
  %50 = call noundef zeroext i1 @_Z9IsPathDivi(i32 noundef %49)
  br i1 %50, label %51, label %56

51:                                               ; preds = %46
  %52 = getelementptr inbounds nuw %class.ScanTree, ptr %6, i32 0, i32 9
  %53 = getelementptr inbounds [2048 x i32], ptr %52, i64 0, i64 3
  %54 = load i32, ptr %53, align 4, !tbaa !33
  %55 = icmp eq i32 %54, 0
  br label %56

56:                                               ; preds = %51, %46, %42
  %57 = phi i1 [ false, %46 ], [ false, %42 ], [ %55, %51 ]
  %58 = getelementptr inbounds nuw %class.ScanTree, ptr %6, i32 0, i32 8
  %59 = zext i1 %57 to i8
  store i8 %59, ptr %58, align 8, !tbaa !30
  br label %60

60:                                               ; preds = %56, %41
  call void @llvm.lifetime.start.p0(i64 8, ptr %5) #12
  %61 = getelementptr inbounds nuw %class.ScanTree, ptr %6, i32 0, i32 9
  %62 = getelementptr inbounds [2048 x i32], ptr %61, i64 0, i64 0
  %63 = call noundef ptr @_Z11PointToNamePKw(ptr noundef %62)
  store ptr %63, ptr %5, align 8, !tbaa !53
  %64 = load ptr, ptr %5, align 8, !tbaa !53
  %65 = load i32, ptr %64, align 4, !tbaa !33
  %66 = icmp eq i32 %65, 0
  br i1 %66, label %67, label %70

67:                                               ; preds = %60
  %68 = getelementptr inbounds nuw %class.ScanTree, ptr %6, i32 0, i32 9
  %69 = getelementptr inbounds [2048 x i32], ptr %68, i64 0, i64 0
  call void @_Z8wcsncatzPwPKwm(ptr noundef %69, ptr noundef @.str, i64 noundef 2048)
  br label %70

70:                                               ; preds = %67, %60
  %71 = load ptr, ptr %5, align 8, !tbaa !53
  %72 = getelementptr inbounds i32, ptr %71, i64 0
  %73 = load i32, ptr %72, align 4, !tbaa !33
  %74 = icmp eq i32 %73, 46
  br i1 %74, label %75, label %95

75:                                               ; preds = %70
  %76 = load ptr, ptr %5, align 8, !tbaa !53
  %77 = getelementptr inbounds i32, ptr %76, i64 1
  %78 = load i32, ptr %77, align 4, !tbaa !33
  %79 = icmp eq i32 %78, 0
  br i1 %79, label %90, label %80

80:                                               ; preds = %75
  %81 = load ptr, ptr %5, align 8, !tbaa !53
  %82 = getelementptr inbounds i32, ptr %81, i64 1
  %83 = load i32, ptr %82, align 4, !tbaa !33
  %84 = icmp eq i32 %83, 46
  br i1 %84, label %85, label %95

85:                                               ; preds = %80
  %86 = load ptr, ptr %5, align 8, !tbaa !53
  %87 = getelementptr inbounds i32, ptr %86, i64 2
  %88 = load i32, ptr %87, align 4, !tbaa !33
  %89 = icmp eq i32 %88, 0
  br i1 %89, label %90, label %95

90:                                               ; preds = %85, %75
  %91 = getelementptr inbounds nuw %class.ScanTree, ptr %6, i32 0, i32 9
  %92 = getelementptr inbounds [2048 x i32], ptr %91, i64 0, i64 0
  call void @_Z11AddEndSlashPwm(ptr noundef %92, i64 noundef 2048)
  %93 = getelementptr inbounds nuw %class.ScanTree, ptr %6, i32 0, i32 9
  %94 = getelementptr inbounds [2048 x i32], ptr %93, i64 0, i64 0
  call void @_Z8wcsncatzPwPKwm(ptr noundef %94, ptr noundef @.str, i64 noundef 2048)
  br label %95

95:                                               ; preds = %90, %85, %80, %70
  %96 = load ptr, ptr %5, align 8, !tbaa !53
  %97 = getelementptr inbounds nuw %class.ScanTree, ptr %6, i32 0, i32 9
  %98 = getelementptr inbounds [2048 x i32], ptr %97, i64 0, i64 0
  %99 = ptrtoint ptr %96 to i64
  %100 = ptrtoint ptr %98 to i64
  %101 = sub i64 %99, %100
  %102 = sdiv exact i64 %101, 4
  %103 = getelementptr inbounds nuw %class.ScanTree, ptr %6, i32 0, i32 17
  store i64 %102, ptr %103, align 8, !tbaa !54
  %104 = getelementptr inbounds nuw %class.ScanTree, ptr %6, i32 0, i32 1
  store i32 0, ptr %104, align 8, !tbaa !35
  %105 = getelementptr inbounds nuw %class.ScanTree, ptr %6, i32 0, i32 10
  %106 = getelementptr inbounds [2048 x i32], ptr %105, i64 0, i64 0
  %107 = getelementptr inbounds nuw %class.ScanTree, ptr %6, i32 0, i32 9
  %108 = getelementptr inbounds [2048 x i32], ptr %107, i64 0, i64 0
  call void @_Z8wcsncpyzPwPKwm(ptr noundef %106, ptr noundef %108, i64 noundef 2048)
  store i1 true, ptr %2, align 1
  call void @llvm.lifetime.end.p0(i64 8, ptr %5) #12
  br label %109

109:                                              ; preds = %95, %8
  %110 = load i1, ptr %2, align 1
  ret i1 %110
}