; Function Attrs: mustprogress uwtable
define noundef zeroext i1 @_ZN8ScanTree11GetNextMaskEv(ptr noundef nonnull align 8 dereferenceable(33216) %0) local_unnamed_addr #0 align 2 {
  %2 = tail call noundef zeroext i1 @_ZN8ScanTree15GetFilteredMaskEv(ptr noundef nonnull align 8 dereferenceable(33216) %0)
  br i1 %2, label %3, label %55

3:                                                ; preds = %1
  %4 = getelementptr inbounds nuw i8, ptr %0, i64 8228
  %5 = load i32, ptr %4, align 4, !tbaa !23
  %6 = icmp eq i32 %5, 92
  %7 = getelementptr inbounds nuw i8, ptr %0, i64 8232
  %8 = load i32, ptr %7, align 8
  %9 = icmp eq i32 %8, 92
  %or.cond = select i1 %6, i1 %9, i1 false
  br i1 %or.cond, label %10, label %20

10:                                               ; preds = %3
  %11 = getelementptr inbounds nuw i8, ptr %0, i64 8236
  %12 = tail call ptr @wcschr(ptr noundef nonnull %11, i32 noundef signext 92) #15
  %.not = icmp eq ptr %12, null
  br i1 %.not, label %31, label %13

13:                                               ; preds = %10
  %14 = getelementptr inbounds nuw i8, ptr %12, i64 4
  %15 = tail call ptr @wcschr(ptr noundef nonnull %14, i32 noundef signext 92) #15
  %.not15 = icmp eq ptr %15, null
  br i1 %.not15, label %.sink.split, label %16

16:                                               ; preds = %13
  %17 = getelementptr inbounds nuw i8, ptr %15, i64 4
  %18 = load i32, ptr %17, align 4, !tbaa !23
  %19 = icmp eq i32 %18, 0
  br label %.sink.split

20:                                               ; preds = %3
  %21 = tail call noundef zeroext i1 @_Z13IsDriveLetterPKw(ptr noundef nonnull %4)
  br i1 %21, label %22, label %.sink.split

22:                                               ; preds = %20
  %23 = getelementptr inbounds nuw i8, ptr %0, i64 8236
  %24 = load i32, ptr %23, align 4, !tbaa !23
  %25 = tail call noundef zeroext i1 @_Z9IsPathDivi(i32 noundef %24)
  br i1 %25, label %26, label %.sink.split

26:                                               ; preds = %22
  %27 = getelementptr inbounds nuw i8, ptr %0, i64 8240
  %28 = load i32, ptr %27, align 8, !tbaa !23
  %29 = icmp eq i32 %28, 0
  br label %.sink.split

.sink.split:                                      ; preds = %20, %22, %26, %13, %16
  %.sink.shrunk = phi i1 [ false, %13 ], [ %19, %16 ], [ false, %22 ], [ false, %20 ], [ %29, %26 ]
  %.sink = zext i1 %.sink.shrunk to i8
  %30 = getelementptr inbounds nuw i8, ptr %0, i64 8224
  store i8 %.sink, ptr %30, align 8, !tbaa !22
  br label %31

31:                                               ; preds = %.sink.split, %10
  %32 = tail call noundef ptr @_Z11PointToNamePKw(ptr noundef nonnull %4)
  %33 = load i32, ptr %32, align 4, !tbaa !23
  %34 = icmp eq i32 %33, 0
  br i1 %34, label %35, label %36

35:                                               ; preds = %31
  tail call void @_Z8wcsncatzPwPKwm(ptr noundef nonnull %4, ptr noundef nonnull @.str, i64 noundef 2048)
  %.pr = load i32, ptr %32, align 4, !tbaa !23
  br label %36

36:                                               ; preds = %35, %31
  %37 = phi i32 [ %.pr, %35 ], [ %33, %31 ]
  %38 = icmp eq i32 %37, 46
  br i1 %38, label %39, label %47

39:                                               ; preds = %36
  %40 = getelementptr inbounds nuw i8, ptr %32, i64 4
  %41 = load i32, ptr %40, align 4, !tbaa !23
  switch i32 %41, label %47 [
    i32 0, label %46
    i32 46, label %42
  ]

42:                                               ; preds = %39
  %43 = getelementptr inbounds nuw i8, ptr %32, i64 8
  %44 = load i32, ptr %43, align 4, !tbaa !23
  %45 = icmp eq i32 %44, 0
  br i1 %45, label %46, label %47

46:                                               ; preds = %39, %42
  tail call void @_Z11AddEndSlashPwm(ptr noundef nonnull %4, i64 noundef 2048)
  tail call void @_Z8wcsncatzPwPKwm(ptr noundef nonnull %4, ptr noundef nonnull @.str, i64 noundef 2048)
  br label %47

47:                                               ; preds = %39, %46, %42, %36
  %48 = ptrtoint ptr %32 to i64
  %49 = ptrtoint ptr %4 to i64
  %50 = sub i64 %48, %49
  %51 = ashr exact i64 %50, 2
  %52 = getelementptr inbounds nuw i8, ptr %0, i64 25008
  store i64 %51, ptr %52, align 8, !tbaa !40
  %53 = getelementptr inbounds nuw i8, ptr %0, i64 8192
  store i32 0, ptr %53, align 8, !tbaa !28
  %54 = getelementptr inbounds nuw i8, ptr %0, i64 16420
  tail call void @_Z8wcsncpyzPwPKwm(ptr noundef nonnull %54, ptr noundef nonnull %4, i64 noundef 2048)
  br label %55

55:                                               ; preds = %1, %47
  ret i1 %2
}